; Function Attrs: mustprogress uwtable
define noundef i64 @_ZNK2pb11CppFeatures12ByteSizeLongEv(ptr noundef nonnull align 8 dereferenceable(32) %this) unnamed_addr #3 align 2 {
entry:
  %0 = getelementptr inbounds i8, ptr %this, i64 16
  %1 = load i32, ptr %0, align 8
  %and = shl i32 %1, 1
  %2 = and i32 %and, 2
  %spec.select = zext nneg i32 %2 to i64
  %_cached_size_ = getelementptr inbounds i8, ptr %this, i64 20
  %call2 = tail call noundef i64 @_ZNK6google8protobuf7Message29MaybeComputeUnknownFieldsSizeEmPNS0_8internal10CachedSizeE(ptr noundef nonnull align 8 dereferenceable(16) %this, i64 noundef %spec.select, ptr noundef nonnull %_cached_size_)
  ret i64 %call2
}